target datalayout = "e-m:e-p270:32:32-p271:32:32-p272:64:64-i64:64-i128:128-f80:128-n8:16:32:64-S128"
target triple = "x86_64-pc-linux-gnu"

%struct._http_stats_t = type { ptr, ptr, ptr }
%struct._http_info_value_t = type { i32, ptr, i32, ptr, ptr, ptr, ptr, ptr, ptr }
%struct._http_response_code_t = type { i32, i32, ptr, ptr }
%struct._http_request_methode_t = type { ptr, i32, ptr }

; Function Attrs: null_pointer_is_valid sspstrong uwtable
define internal i32 @httpstat_packet(ptr noundef %0, ptr noundef %1, ptr noundef %2, ptr noundef %3, i32 noundef %4) #0 {
  %6 = alloca i32, align 4
  %7 = alloca ptr, align 8
  %8 = alloca ptr, align 8
  %9 = alloca ptr, align 8
  %10 = alloca ptr, align 8
  %11 = alloca i32, align 4
  %12 = alloca ptr, align 8
  %13 = alloca ptr, align 8
  %14 = alloca ptr, align 8
  %15 = alloca i32, align 4
  %16 = alloca i32, align 4
  %17 = alloca i32, align 4
  %18 = alloca ptr, align 8
  %19 = alloca i64, align 8
  %20 = alloca i64, align 8
  %21 = alloca ptr, align 8
  %22 = alloca ptr, align 8
  store ptr %0, ptr %7, align 8
  store ptr %1, ptr %8, align 8
  store ptr %2, ptr %9, align 8
  store ptr %3, ptr %10, align 8
  store i32 %4, ptr %11, align 4
  call void @llvm.lifetime.start.p0(i64 8, ptr %12) #10
  %23 = load ptr, ptr %10, align 8
  store ptr %23, ptr %12, align 8
  call void @llvm.lifetime.start.p0(i64 8, ptr %13) #10
  %24 = load ptr, ptr %7, align 8
  store ptr %24, ptr %13, align 8
  %25 = load ptr, ptr %12, align 8
  %26 = getelementptr inbounds nuw %struct._http_info_value_t, ptr %25, i32 0, i32 2
  %27 = load i32, ptr %26, align 8
  %28 = icmp ne i32 %27, 0
  br i1 %28, label %29, label %96

29:                                               ; preds = %5
  call void @llvm.lifetime.start.p0(i64 8, ptr %14) #10
  call void @llvm.lifetime.start.p0(i64 4, ptr %15) #10
  %30 = load ptr, ptr %12, align 8
  %31 = getelementptr inbounds nuw %struct._http_info_value_t, ptr %30, i32 0, i32 2
  %32 = load i32, ptr %31, align 8
  store i32 %32, ptr %15, align 4
  %33 = load ptr, ptr %13, align 8
  %34 = getelementptr inbounds nuw %struct._http_stats_t, ptr %33, i32 0, i32 1
  %35 = load ptr, ptr %34, align 8
  %36 = load i32, ptr %15, align 4
  %37 = zext i32 %36 to i64
  %38 = inttoptr i64 %37 to ptr
  %39 = call ptr @g_hash_table_lookup(ptr noundef %35, ptr noundef %38)
  store ptr %39, ptr %14, align 8
  %40 = load ptr, ptr %14, align 8
  %41 = icmp eq ptr %40, null
  br i1 %41, label %42, label %88

42:                                               ; preds = %29
  call void @llvm.lifetime.start.p0(i64 4, ptr %16) #10
  %43 = load ptr, ptr %12, align 8
  %44 = getelementptr inbounds nuw %struct._http_info_value_t, ptr %43, i32 0, i32 2
  %45 = load i32, ptr %44, align 8
  store i32 %45, ptr %16, align 4
  %46 = load i32, ptr %16, align 4
  %47 = icmp slt i32 %46, 100
  br i1 %47, label %51, label %48

48:                                               ; preds = %42
  %49 = load i32, ptr %16, align 4
  %50 = icmp sge i32 %49, 600
  br i1 %50, label %51, label %52

51:                                               ; preds = %48, %42
  store i32 0, ptr %6, align 4
  store i32 1, ptr %17, align 4
  br label %85

52:                                               ; preds = %48
  %53 = load i32, ptr %16, align 4
  %54 = icmp slt i32 %53, 200
  br i1 %54, label %55, label %56

55:                                               ; preds = %52
  store i32 199, ptr %15, align 4
  br label %72

56:                                               ; preds = %52
  %57 = load i32, ptr %16, align 4
  %58 = icmp slt i32 %57, 300
  br i1 %58, label %59, label %60

59:                                               ; preds = %56
  store i32 299, ptr %15, align 4
  br label %71

60:                                               ; preds = %56
  %61 = load i32, ptr %16, align 4
  %62 = icmp slt i32 %61, 400
  br i1 %62, label %63, label %64

63:                                               ; preds = %60
  store i32 399, ptr %15, align 4
  br label %70

64:                                               ; preds = %60
  %65 = load i32, ptr %16, align 4
  %66 = icmp slt i32 %65, 500
  br i1 %66, label %67, label %68

67:                                               ; preds = %64
  store i32 499, ptr %15, align 4
  br label %69

68:                                               ; preds = %64
  store i32 599, ptr %15, align 4
  br label %69

69:                                               ; preds = %68, %67
  br label %70

70:                                               ; preds = %69, %63
  br label %71

71:                                               ; preds = %70, %59
  br label %72

72:                                               ; preds = %71, %55
  br label %73

73:                                               ; preds = %72
  %74 = load ptr, ptr %13, align 8
  %75 = getelementptr inbounds nuw %struct._http_stats_t, ptr %74, i32 0, i32 1
  %76 = load ptr, ptr %75, align 8
  %77 = load i32, ptr %15, align 4
  %78 = zext i32 %77 to i64
  %79 = inttoptr i64 %78 to ptr
  %80 = call ptr @g_hash_table_lookup(ptr noundef %76, ptr noundef %79)
  store ptr %80, ptr %14, align 8
  %81 = load ptr, ptr %14, align 8
  %82 = icmp eq ptr %81, null
  br i1 %82, label %83, label %84

83:                                               ; preds = %73
  store i32 0, ptr %6, align 4
  store i32 1, ptr %17, align 4
  br label %85

84:                                               ; preds = %73
  store i32 0, ptr %17, align 4
  br label %85

85:                                               ; preds = %84, %83, %51
  call void @llvm.lifetime.end.p0(i64 4, ptr %16) #10
  %86 = load i32, ptr %17, align 4
  switch i32 %86, label %93 [
    i32 0, label %87
  ]

87:                                               ; preds = %85
  br label %88

88:                                               ; preds = %87, %29
  %89 = load ptr, ptr %14, align 8
  %90 = getelementptr inbounds nuw %struct._http_response_code_t, ptr %89, i32 0, i32 0
  %91 = load i32, ptr %90, align 8
  %92 = add i32 %91, 1
  store i32 %92, ptr %90, align 8
  store i32 0, ptr %17, align 4
  br label %93

93:                                               ; preds = %88, %85
  call void @llvm.lifetime.end.p0(i64 4, ptr %15) #10
  call void @llvm.lifetime.end.p0(i64 8, ptr %14) #10
  %94 = load i32, ptr %17, align 4
  switch i32 %94, label %169 [
    i32 0, label %95
  ]

95:                                               ; preds = %93
  br label %168

96:                                               ; preds = %5
  %97 = load ptr, ptr %12, align 8
  %98 = getelementptr inbounds nuw %struct._http_info_value_t, ptr %97, i32 0, i32 1
  %99 = load ptr, ptr %98, align 8
  %100 = icmp ne ptr %99, null
  br i1 %100, label %101, label %166

101:                                              ; preds = %96
  call void @llvm.lifetime.start.p0(i64 8, ptr %18) #10
  %102 = load ptr, ptr %13, align 8
  %103 = getelementptr inbounds nuw %struct._http_stats_t, ptr %102, i32 0, i32 2
  %104 = load ptr, ptr %103, align 8
  %105 = load ptr, ptr %12, align 8
  %106 = getelementptr inbounds nuw %struct._http_info_value_t, ptr %105, i32 0, i32 1
  %107 = load ptr, ptr %106, align 8
  %108 = call ptr @g_hash_table_lookup(ptr noundef %104, ptr noundef %107)
  store ptr %108, ptr %18, align 8
  %109 = load ptr, ptr %18, align 8
  %110 = icmp eq ptr %109, null
  br i1 %110, label %111, label %160

111:                                              ; preds = %101
  call void @llvm.lifetime.start.p0(i64 8, ptr %19) #10
  store i64 1, ptr %19, align 8
  call void @llvm.lifetime.start.p0(i64 8, ptr %20) #10
  store i64 24, ptr %20, align 8
  call void @llvm.lifetime.start.p0(i64 8, ptr %21) #10
  %112 = load i64, ptr %20, align 8
  %113 = icmp eq i64 %112, 1
  br i1 %113, label %114, label %117

114:                                              ; preds = %111
  %115 = load i64, ptr %19, align 8
  %116 = call noalias ptr @g_malloc(i64 noundef %115) #12
  store ptr %116, ptr %21, align 8
  br label %138

117:                                              ; preds = %111
  %118 = load i64, ptr %19, align 8
  %119 = call i1 @llvm.is.constant.i64(i64 %118)
  br i1 %119, label %120, label %133

120:                                              ; preds = %117
  %121 = load i64, ptr %20, align 8
  %122 = icmp eq i64 %121, 0
  br i1 %122, label %128, label %123

123:                                              ; preds = %120
  %124 = load i64, ptr %19, align 8
  %125 = load i64, ptr %20, align 8
  %126 = udiv i64 -1, %125
  %127 = icmp ule i64 %124, %126
  br i1 %127, label %128, label %133

128:                                              ; preds = %123, %120
  %129 = load i64, ptr %19, align 8
  %130 = load i64, ptr %20, align 8
  %131 = mul i64 %129, %130
  %132 = call noalias ptr @g_malloc(i64 noundef %131) #12
  store ptr %132, ptr %21, align 8
  br label %137

133:                                              ; preds = %123, %117
  %134 = load i64, ptr %19, align 8
  %135 = load i64, ptr %20, align 8
  %136 = call noalias ptr @g_malloc_n(i64 noundef %134, i64 noundef %135) #13
  store ptr %136, ptr %21, align 8
  br label %137

137:                                              ; preds = %133, %128
  br label %138

138:                                              ; preds = %137, %114
  %139 = load ptr, ptr %21, align 8
  store ptr %139, ptr %22, align 8
  call void @llvm.lifetime.end.p0(i64 8, ptr %21) #10
  call void @llvm.lifetime.end.p0(i64 8, ptr %20) #10
  call void @llvm.lifetime.end.p0(i64 8, ptr %19) #10
  %140 = load ptr, ptr %22, align 8
  store ptr %140, ptr %18, align 8
  %141 = load ptr, ptr %12, align 8
  %142 = getelementptr inbounds nuw %struct._http_info_value_t, ptr %141, i32 0, i32 1
  %143 = load ptr, ptr %142, align 8
  %144 = call noalias ptr @g_strdup(ptr noundef %143)
  %145 = load ptr, ptr %18, align 8
  %146 = getelementptr inbounds nuw %struct._http_request_methode_t, ptr %145, i32 0, i32 0
  store ptr %144, ptr %146, align 8
  %147 = load ptr, ptr %18, align 8
  %148 = getelementptr inbounds nuw %struct._http_request_methode_t, ptr %147, i32 0, i32 1
  store i32 1, ptr %148, align 8
  %149 = load ptr, ptr %13, align 8
  %150 = load ptr, ptr %18, align 8
  %151 = getelementptr inbounds nuw %struct._http_request_methode_t, ptr %150, i32 0, i32 2
  store ptr %149, ptr %151, align 8
  %152 = load ptr, ptr %13, align 8
  %153 = getelementptr inbounds nuw %struct._http_stats_t, ptr %152, i32 0, i32 2
  %154 = load ptr, ptr %153, align 8
  %155 = load ptr, ptr %18, align 8
  %156 = getelementptr inbounds nuw %struct._http_request_methode_t, ptr %155, i32 0, i32 0
  %157 = load ptr, ptr %156, align 8
  %158 = load ptr, ptr %18, align 8
  %159 = call i32 @g_hash_table_insert(ptr noundef %154, ptr noundef %157, ptr noundef %158)
  br label %165

160:                                              ; preds = %101
  %161 = load ptr, ptr %18, align 8
  %162 = getelementptr inbounds nuw %struct._http_request_methode_t, ptr %161, i32 0, i32 1
  %163 = load i32, ptr %162, align 8
  %164 = add i32 %163, 1
  store i32 %164, ptr %162, align 8
  br label %165

165:                                              ; preds = %160, %138
  call void @llvm.lifetime.end.p0(i64 8, ptr %18) #10
  br label %167

166:                                              ; preds = %96
  store i32 0, ptr %6, align 4
  store i32 1, ptr %17, align 4
  br label %169

167:                                              ; preds = %165
  br label %168

168:                                              ; preds = %167, %95
  store i32 1, ptr %6, align 4
  store i32 1, ptr %17, align 4
  br label %169

169:                                              ; preds = %168, %166, %93
  call void @llvm.lifetime.end.p0(i64 8, ptr %13) #10
  call void @llvm.lifetime.end.p0(i64 8, ptr %12) #10
  %170 = load i32, ptr %6, align 4
  ret i32 %170
}