; Function Attrs: null_pointer_is_valid sspstrong uwtable
define internal range(i32 0, 2) i32 @httpstat_packet(ptr noundef %0, ptr readnone captures(none) %1, ptr readnone captures(none) %2, ptr noundef readonly captures(none) %3, i32 %4) #0 {
  %6 = getelementptr inbounds nuw i8, ptr %3, i64 16
  %7 = load i32, ptr %6, align 8
  %.not = icmp eq i32 %7, 0
  br i1 %.not, label %32, label %8

8:                                                ; preds = %5
  %9 = getelementptr inbounds nuw i8, ptr %0, i64 8
  %10 = load ptr, ptr %9, align 8
  %11 = zext i32 %7 to i64
  %12 = inttoptr i64 %11 to ptr
  %13 = tail call ptr @g_hash_table_lookup(ptr noundef %10, ptr noundef nonnull %12)
  %14 = icmp eq ptr %13, null
  br i1 %14, label %15, label %.critedge

15:                                               ; preds = %8
  %16 = load i32, ptr %6, align 8
  %17 = add i32 %16, -600
  %or.cond = icmp ult i32 %17, -500
  br i1 %or.cond, label %.thread, label %18

18:                                               ; preds = %15
  %19 = icmp samesign ult i32 %16, 200
  br i1 %19, label %26, label %20

20:                                               ; preds = %18
  %21 = icmp samesign ult i32 %16, 300
  br i1 %21, label %26, label %22

22:                                               ; preds = %20
  %23 = icmp samesign ult i32 %16, 400
  br i1 %23, label %26, label %24

24:                                               ; preds = %22
  %25 = icmp samesign ult i32 %16, 500
  %. = select i1 %25, i64 499, i64 599
  br label %26

26:                                               ; preds = %18, %20, %22, %24
  %.050 = phi i64 [ 199, %18 ], [ 299, %20 ], [ 399, %22 ], [ %., %24 ]
  %27 = load ptr, ptr %9, align 8
  %28 = inttoptr i64 %.050 to ptr
  %29 = tail call ptr @g_hash_table_lookup(ptr noundef %27, ptr noundef nonnull %28)
  %.not64 = icmp eq ptr %29, null
  br i1 %.not64, label %.thread, label %.critedge

.critedge:                                        ; preds = %26, %8
  %.048 = phi ptr [ %29, %26 ], [ %13, %8 ]
  %30 = load i32, ptr %.048, align 8
  %31 = add i32 %30, 1
  store i32 %31, ptr %.048, align 8
  br label %.thread

32:                                               ; preds = %5
  %33 = getelementptr inbounds nuw i8, ptr %3, i64 8
  %34 = load ptr, ptr %33, align 8
  %.not59 = icmp eq ptr %34, null
  br i1 %.not59, label %.thread, label %35

35:                                               ; preds = %32
  %36 = getelementptr inbounds nuw i8, ptr %0, i64 16
  %37 = load ptr, ptr %36, align 8
  %38 = tail call ptr @g_hash_table_lookup(ptr noundef %37, ptr noundef nonnull %34)
  %39 = icmp eq ptr %38, null
  br i1 %39, label %40, label %48

40:                                               ; preds = %35
  %41 = tail call noalias dereferenceable_or_null(24) ptr @g_malloc(i64 noundef 24) #8
  %42 = load ptr, ptr %33, align 8
  %43 = tail call noalias ptr @g_strdup(ptr noundef %42)
  store ptr %43, ptr %41, align 8
  %44 = getelementptr inbounds nuw i8, ptr %41, i64 8
  store i32 1, ptr %44, align 8
  %45 = getelementptr inbounds nuw i8, ptr %41, i64 16
  store ptr %0, ptr %45, align 8
  %46 = load ptr, ptr %36, align 8
  %47 = tail call i32 @g_hash_table_insert(ptr noundef %46, ptr noundef %43, ptr noundef %41)
  br label %.thread

48:                                               ; preds = %35
  %49 = getelementptr inbounds nuw i8, ptr %38, i64 8
  %50 = load i32, ptr %49, align 8
  %51 = add i32 %50, 1
  store i32 %51, ptr %49, align 8
  br label %.thread

.thread:                                          ; preds = %15, %.critedge, %48, %40, %32, %26
  %.3 = phi i32 [ 0, %26 ], [ 0, %32 ], [ 1, %40 ], [ 1, %48 ], [ 1, %.critedge ], [ 0, %15 ]
  ret i32 %.3
}